; Function Attrs: mustprogress uwtable
define hidden noundef range(i32 -1, -2147483648) i32 @_ZN2cv7barcode13UPCEANDecoder11decodeDigitERKSt6vectorIhSaIhEERNS0_7CounterEjRKS2_IS2_IiSaIiEESaISA_EE(ptr noundef nonnull align 8 dereferenceable(24) %0, ptr noundef nonnull align 8 dereferenceable(28) %1, i32 noundef %2, ptr noundef nonnull readonly align 8 captures(none) dereferenceable(24) %3) local_unnamed_addr #0 align 2 {
  tail call void @_ZN2cv7barcode11fillCounterERKSt6vectorIhSaIhEEjRNS0_7CounterE(ptr noundef nonnull align 8 dereferenceable(24) %0, i32 noundef %2, ptr noundef nonnull align 8 dereferenceable(28) %1)
  %5 = load ptr, ptr %3, align 8, !tbaa !34
  %6 = getelementptr inbounds nuw i8, ptr %3, i64 8
  %7 = load ptr, ptr %6, align 8, !tbaa !34
  %.not23 = icmp eq ptr %5, %7
  br i1 %.not23, label %._crit_edge, label %.lr.ph

._crit_edge:                                      ; preds = %.lr.ph, %4
  %.020.lcssa = phi i32 [ -1, %4 ], [ %spec.select, %.lr.ph ]
  %.sroa.speculated = tail call i32 @llvm.smax.i32(i32 %.020.lcssa, i32 -1)
  ret i32 %.sroa.speculated

.lr.ph:                                           ; preds = %4, %.lr.ph
  %.027 = phi i32 [ %spec.select22, %.lr.ph ], [ 122, %4 ]
  %.01226 = phi i32 [ %10, %.lr.ph ], [ 0, %4 ]
  %.02025 = phi i32 [ %spec.select, %.lr.ph ], [ -1, %4 ]
  %.sroa.015.024 = phi ptr [ %11, %.lr.ph ], [ %5, %4 ]
  %8 = tail call noundef i32 @_ZN2cv7barcode12patternMatchERKNS0_7CounterERKSt6vectorIiSaIiEEj(ptr noundef nonnull align 8 dereferenceable(28) %1, ptr noundef nonnull align 8 dereferenceable(24) %.sroa.015.024, i32 noundef 179)
  %9 = icmp ult i32 %8, %.027
  %spec.select = select i1 %9, i32 %.01226, i32 %.02025
  %spec.select22 = tail call i32 @llvm.umin.i32(i32 %8, i32 %.027)
  %10 = add nuw nsw i32 %.01226, 1
  %11 = getelementptr inbounds nuw i8, ptr %.sroa.015.024, i64 24
  %.not = icmp eq ptr %11, %7
  br i1 %.not, label %._crit_edge, label %.lr.ph
}